; ModuleID = '22/993.c'
source_filename = "22/993.c"
target datalayout = "e-m:e-p270:32:32-p271:32:32-p272:64:64-i64:64-f80:128-n8:16:32:64-S128"
target triple = "x86_64-pc-linux-gnu"

@.str = private unnamed_addr constant [3 x i8] c"%d\00", align 1
@.str.1 = private unnamed_addr constant [4 x i8] c",%d\00", align 1
@.str.2 = private unnamed_addr constant [4 x i8] c"No\0A\00", align 1
@.str.3 = private unnamed_addr constant [4 x i8] c"%d\0A\00", align 1

; Function Attrs: noinline nounwind uwtable
define dso_local i32 @main() #0 {
  %1 = alloca i32, align 4
  %2 = alloca [300 x i32], align 16
  %3 = alloca i32, align 4
  %4 = alloca i32, align 4
  %5 = alloca i32, align 4
  %6 = alloca i32, align 4
  %7 = alloca i32, align 4
  store i32 0, i32* %1, align 4
  store i32 1, i32* %3, align 4
  store i32 0, i32* %6, align 4
  %8 = getelementptr inbounds [300 x i32], [300 x i32]* %2, i64 0, i64 0
  %9 = call i32 (i8*, ...) @__isoc99_scanf(i8* getelementptr inbounds ([3 x i8], [3 x i8]* @.str, i64 0, i64 0), i32* %8)
  br label %10

10:                                               ; preds = %16, %0
  %11 = load i32, i32* %3, align 4
  %12 = sext i32 %11 to i64
  %13 = getelementptr inbounds [300 x i32], [300 x i32]* %2, i64 0, i64 %12
  %14 = call i32 (i8*, ...) @__isoc99_scanf(i8* getelementptr inbounds ([4 x i8], [4 x i8]* @.str.1, i64 0, i64 0), i32* %13)
  %15 = icmp ne i32 %14, 0
  br i1 %15, label %16, label %19

16:                                               ; preds = %10
  %17 = load i32, i32* %3, align 4
  %18 = add nsw i32 %17, 1
  store i32 %18, i32* %3, align 4
  br label %10

19:                                               ; preds = %10
  %20 = getelementptr inbounds [300 x i32], [300 x i32]* %2, i64 0, i64 0
  %21 = load i32, i32* %20, align 16
  store i32 %21, i32* %5, align 4
  store i32 0, i32* %4, align 4
  br label %22

22:                                               ; preds = %39, %19
  %23 = load i32, i32* %4, align 4
  %24 = load i32, i32* %3, align 4
  %25 = icmp slt i32 %23, %24
  br i1 %25, label %26, label %42

26:                                               ; preds = %22
  %27 = load i32, i32* %4, align 4
  %28 = sext i32 %27 to i64
  %29 = getelementptr inbounds [300 x i32], [300 x i32]* %2, i64 0, i64 %28
  %30 = load i32, i32* %29, align 4
  %31 = load i32, i32* %5, align 4
  %32 = icmp sgt i32 %30, %31
  br i1 %32, label %33, label %38

33:                                               ; preds = %26
  %34 = load i32, i32* %4, align 4
  %35 = sext i32 %34 to i64
  %36 = getelementptr inbounds [300 x i32], [300 x i32]* %2, i64 0, i64 %35
  %37 = load i32, i32* %36, align 4
  store i32 %37, i32* %5, align 4
  br label %38

38:                                               ; preds = %33, %26
  br label %39

39:                                               ; preds = %38
  %40 = load i32, i32* %4, align 4
  %41 = add nsw i32 %40, 1
  store i32 %41, i32* %4, align 4
  br label %22

42:                                               ; preds = %22
  store i32 0, i32* %7, align 4
  br label %43

43:                                               ; preds = %67, %42
  %44 = load i32, i32* %7, align 4
  %45 = load i32, i32* %3, align 4
  %46 = icmp slt i32 %44, %45
  br i1 %46, label %47, label %70

47:                                               ; preds = %43
  %48 = load i32, i32* %7, align 4
  %49 = sext i32 %48 to i64
  %50 = getelementptr inbounds [300 x i32], [300 x i32]* %2, i64 0, i64 %49
  %51 = load i32, i32* %50, align 4
  %52 = load i32, i32* %6, align 4
  %53 = icmp sgt i32 %51, %52
  br i1 %53, label %54, label %66

54:                                               ; preds = %47
  %55 = load i32, i32* %7, align 4
  %56 = sext i32 %55 to i64
  %57 = getelementptr inbounds [300 x i32], [300 x i32]* %2, i64 0, i64 %56
  %58 = load i32, i32* %57, align 4
  %59 = load i32, i32* %5, align 4
  %60 = icmp ne i32 %58, %59
  br i1 %60, label %61, label %66

61:                                               ; preds = %54
  %62 = load i32, i32* %7, align 4
  %63 = sext i32 %62 to i64
  %64 = getelementptr inbounds [300 x i32], [300 x i32]* %2, i64 0, i64 %63
  %65 = load i32, i32* %64, align 4
  store i32 %65, i32* %6, align 4
  br label %66

66:                                               ; preds = %61, %54, %47
  br label %67

67:                                               ; preds = %66
  %68 = load i32, i32* %7, align 4
  %69 = add nsw i32 %68, 1
  store i32 %69, i32* %7, align 4
  br label %43

70:                                               ; preds = %43
  %71 = load i32, i32* %6, align 4
  %72 = icmp eq i32 %71, 0
  br i1 %72, label %73, label %75

73:                                               ; preds = %70
  %74 = call i32 (i8*, ...) @printf(i8* getelementptr inbounds ([4 x i8], [4 x i8]* @.str.2, i64 0, i64 0))
  br label %78

75:                                               ; preds = %70
  %76 = load i32, i32* %6, align 4
  %77 = call i32 (i8*, ...) @printf(i8* getelementptr inbounds ([4 x i8], [4 x i8]* @.str.3, i64 0, i64 0), i32 %76)
  br label %78

78:                                               ; preds = %75, %73
  ret i32 0
}

declare dso_local i32 @__isoc99_scanf(i8*, ...) #1

declare dso_local i32 @printf(i8*, ...) #1


!llvm.module.flags = !{!0}
!llvm.ident = !{!1}

!0 = !{i32 1, !"wchar_size", i32 4}
!1 = !{!"clang version 10.0.0-4ubuntu1 "}
